target datalayout = "e-m:e-p270:32:32-p271:32:32-p272:64:64-i64:64-i128:128-f80:128-n8:16:32:64-S128"
target triple = "x86_64-pc-linux-gnu"

%struct.gstack_s = type { ptr, ptr, %struct.list_s, %struct.list_s, %struct.list_s, ptr }
%struct.list_s = type { ptr, ptr }
%struct.item_s = type { i32, %union.s, ptr, ptr }
%union.s = type { ptr }
%struct.Agsym_s = type { %struct.dtlink_s_, ptr, ptr, i32, i8, i8, i8 }
%struct.dtlink_s_ = type { ptr, %union.anon }
%union.anon = type { ptr }

@G = internal global ptr null, align 8
@S = internal global ptr null, align 8
@stderr = external global ptr, align 8
@.str.9 = private unnamed_addr constant [45 x i8] c"%s:%d: claimed unreachable code was reached\0A\00", align 1
@.str.10 = private unnamed_addr constant [116 x i8] c"generated/home/dtcxzyw/WorkSpace/Projects/compilers/llvm-opt-benchmark/bench/graphviz/graphviz/lib/cgraph/grammar.y\00", align 1
@.str.11 = private unnamed_addr constant [33 x i8] c"attribute macros not implemented\00", align 1

; Function Attrs: nounwind uwtable
define internal void @deletelist(ptr noundef %0) #0 {
  %2 = alloca ptr, align 8
  store ptr %0, ptr %2, align 8, !tbaa !65
  %3 = load ptr, ptr %2, align 8, !tbaa !65
  %4 = getelementptr inbounds nuw %struct.list_s, ptr %3, i32 0, i32 0
  %5 = load ptr, ptr %4, align 8, !tbaa !68
  call void @delete_items(ptr noundef %5)
  %6 = load ptr, ptr %2, align 8, !tbaa !65
  %7 = getelementptr inbounds nuw %struct.list_s, ptr %6, i32 0, i32 1
  store ptr null, ptr %7, align 8, !tbaa !67
  %8 = load ptr, ptr %2, align 8, !tbaa !65
  %9 = getelementptr inbounds nuw %struct.list_s, ptr %8, i32 0, i32 0
  store ptr null, ptr %9, align 8, !tbaa !68
  ret void
}

; Function Attrs: nounwind uwtable
define internal void @nomacros() #0 {
  call void (ptr, ...) @agwarningf(ptr noundef @.str.11)
  ret void
}

; Function Attrs: nounwind uwtable
define internal void @attrstmt(i32 noundef %0, ptr noundef %1) #0 {
  %3 = alloca i32, align 4
  %4 = alloca ptr, align 8
  %5 = alloca ptr, align 8
  %6 = alloca i32, align 4
  %7 = alloca ptr, align 8
  store i32 %0, ptr %3, align 4, !tbaa !3
  store ptr %1, ptr %4, align 8, !tbaa !9
  call void @llvm.lifetime.start.p0(i64 8, ptr %5) #14
  call void @llvm.lifetime.start.p0(i64 4, ptr %6) #14
  store i32 0, ptr %6, align 4, !tbaa !3
  call void @llvm.lifetime.start.p0(i64 8, ptr %7) #14
  %8 = load ptr, ptr %4, align 8, !tbaa !9
  %9 = icmp ne ptr %8, null
  br i1 %9, label %10, label %11

10:                                               ; preds = %2
  call void @nomacros()
  br label %11

11:                                               ; preds = %10, %2
  %12 = load ptr, ptr @S, align 8, !tbaa !22
  %13 = getelementptr inbounds nuw %struct.gstack_s, ptr %12, i32 0, i32 4
  %14 = getelementptr inbounds nuw %struct.list_s, ptr %13, i32 0, i32 0
  %15 = load ptr, ptr %14, align 8, !tbaa !31
  store ptr %15, ptr %5, align 8, !tbaa !35
  br label %16

16:                                               ; preds = %26, %11
  %17 = load ptr, ptr %5, align 8, !tbaa !35
  %18 = icmp ne ptr %17, null
  br i1 %18, label %19, label %30

19:                                               ; preds = %16
  %20 = load ptr, ptr %5, align 8, !tbaa !35
  %21 = getelementptr inbounds nuw %struct.item_s, ptr %20, i32 0, i32 2
  %22 = load ptr, ptr %21, align 8, !tbaa !38
  %23 = icmp eq ptr %22, null
  br i1 %23, label %24, label %25

24:                                               ; preds = %19
  call void @nomacros()
  br label %25

25:                                               ; preds = %24, %19
  br label %26

26:                                               ; preds = %25
  %27 = load ptr, ptr %5, align 8, !tbaa !35
  %28 = getelementptr inbounds nuw %struct.item_s, ptr %27, i32 0, i32 3
  %29 = load ptr, ptr %28, align 8, !tbaa !39
  store ptr %29, ptr %5, align 8, !tbaa !35
  br label %16, !llvm.loop !52

30:                                               ; preds = %16
  %31 = load i32, ptr %3, align 4, !tbaa !3
  switch i32 %31, label %35 [
    i32 258, label %32
    i32 259, label %33
    i32 260, label %34
  ]

32:                                               ; preds = %30
  store i32 0, ptr %6, align 4, !tbaa !3
  br label %41

33:                                               ; preds = %30
  store i32 1, ptr %6, align 4, !tbaa !3
  br label %41

34:                                               ; preds = %30
  store i32 2, ptr %6, align 4, !tbaa !3
  br label %41

35:                                               ; preds = %30
  br label %36

36:                                               ; preds = %35
  %37 = load ptr, ptr @stderr, align 8, !tbaa !53
  %38 = call i32 (ptr, ptr, ...) @fprintf(ptr noundef %37, ptr noundef @.str.9, ptr noundef @.str.10, i32 noundef 352) #14
  call void @abort() #16
  unreachable

39:                                               ; No predecessors!
  br label %40

40:                                               ; preds = %39
  br label %41

41:                                               ; preds = %40, %34, %33, %32
  %42 = load i32, ptr %6, align 4, !tbaa !3
  call void @bindattrs(i32 noundef %42)
  %43 = load ptr, ptr @S, align 8, !tbaa !22
  %44 = getelementptr inbounds nuw %struct.gstack_s, ptr %43, i32 0, i32 4
  %45 = getelementptr inbounds nuw %struct.list_s, ptr %44, i32 0, i32 0
  %46 = load ptr, ptr %45, align 8, !tbaa !31
  store ptr %46, ptr %5, align 8, !tbaa !35
  br label %47

47:                                               ; preds = %118, %41
  %48 = load ptr, ptr %5, align 8, !tbaa !35
  %49 = icmp ne ptr %48, null
  br i1 %49, label %50, label %122

50:                                               ; preds = %47
  %51 = load ptr, ptr %5, align 8, !tbaa !35
  %52 = getelementptr inbounds nuw %struct.item_s, ptr %51, i32 0, i32 0
  %53 = load i32, ptr %52, align 8, !tbaa !36
  %54 = icmp eq i32 %53, 267
  br i1 %54, label %55, label %56

55:                                               ; preds = %50
  br label %118

56:                                               ; preds = %50
  %57 = load ptr, ptr %5, align 8, !tbaa !35
  %58 = getelementptr inbounds nuw %struct.item_s, ptr %57, i32 0, i32 1
  %59 = load ptr, ptr %58, align 8, !tbaa !14
  %60 = getelementptr inbounds nuw %struct.Agsym_s, ptr %59, i32 0, i32 5
  %61 = load i8, ptr %60, align 1, !tbaa !55
  %62 = icmp ne i8 %61, 0
  br i1 %62, label %63, label %69

63:                                               ; preds = %56
  %64 = load ptr, ptr @S, align 8, !tbaa !22
  %65 = getelementptr inbounds nuw %struct.gstack_s, ptr %64, i32 0, i32 0
  %66 = load ptr, ptr %65, align 8, !tbaa !44
  %67 = load ptr, ptr @G, align 8, !tbaa !18
  %68 = icmp ne ptr %66, %67
  br i1 %68, label %69, label %104

69:                                               ; preds = %63, %56
  %70 = load ptr, ptr %5, align 8, !tbaa !35
  %71 = getelementptr inbounds nuw %struct.item_s, ptr %70, i32 0, i32 2
  %72 = load ptr, ptr %71, align 8, !tbaa !38
  %73 = call i32 @aghtmlstr(ptr noundef %72)
  %74 = icmp ne i32 %73, 0
  br i1 %74, label %75, label %89

75:                                               ; preds = %69
  %76 = load ptr, ptr @S, align 8, !tbaa !22
  %77 = getelementptr inbounds nuw %struct.gstack_s, ptr %76, i32 0, i32 0
  %78 = load ptr, ptr %77, align 8, !tbaa !44
  %79 = load i32, ptr %6, align 4, !tbaa !3
  %80 = load ptr, ptr %5, align 8, !tbaa !35
  %81 = getelementptr inbounds nuw %struct.item_s, ptr %80, i32 0, i32 1
  %82 = load ptr, ptr %81, align 8, !tbaa !14
  %83 = getelementptr inbounds nuw %struct.Agsym_s, ptr %82, i32 0, i32 1
  %84 = load ptr, ptr %83, align 8, !tbaa !59
  %85 = load ptr, ptr %5, align 8, !tbaa !35
  %86 = getelementptr inbounds nuw %struct.item_s, ptr %85, i32 0, i32 2
  %87 = load ptr, ptr %86, align 8, !tbaa !38
  %88 = call ptr @agattr_html(ptr noundef %78, i32 noundef %79, ptr noundef %84, ptr noundef %87)
  store ptr %88, ptr %7, align 8, !tbaa !60
  br label %103

89:                                               ; preds = %69
  %90 = load ptr, ptr @S, align 8, !tbaa !22
  %91 = getelementptr inbounds nuw %struct.gstack_s, ptr %90, i32 0, i32 0
  %92 = load ptr, ptr %91, align 8, !tbaa !44
  %93 = load i32, ptr %6, align 4, !tbaa !3
  %94 = load ptr, ptr %5, align 8, !tbaa !35
  %95 = getelementptr inbounds nuw %struct.item_s, ptr %94, i32 0, i32 1
  %96 = load ptr, ptr %95, align 8, !tbaa !14
  %97 = getelementptr inbounds nuw %struct.Agsym_s, ptr %96, i32 0, i32 1
  %98 = load ptr, ptr %97, align 8, !tbaa !59
  %99 = load ptr, ptr %5, align 8, !tbaa !35
  %100 = getelementptr inbounds nuw %struct.item_s, ptr %99, i32 0, i32 2
  %101 = load ptr, ptr %100, align 8, !tbaa !38
  %102 = call ptr @agattr(ptr noundef %92, i32 noundef %93, ptr noundef %98, ptr noundef %101)
  store ptr %102, ptr %7, align 8, !tbaa !60
  br label %103

103:                                              ; preds = %89, %75
  br label %108

104:                                              ; preds = %63
  %105 = load ptr, ptr %5, align 8, !tbaa !35
  %106 = getelementptr inbounds nuw %struct.item_s, ptr %105, i32 0, i32 1
  %107 = load ptr, ptr %106, align 8, !tbaa !14
  store ptr %107, ptr %7, align 8, !tbaa !60
  br label %108

108:                                              ; preds = %104, %103
  %109 = load ptr, ptr @S, align 8, !tbaa !22
  %110 = getelementptr inbounds nuw %struct.gstack_s, ptr %109, i32 0, i32 0
  %111 = load ptr, ptr %110, align 8, !tbaa !44
  %112 = load ptr, ptr @G, align 8, !tbaa !18
  %113 = icmp eq ptr %111, %112
  br i1 %113, label %114, label %117

114:                                              ; preds = %108
  %115 = load ptr, ptr %7, align 8, !tbaa !60
  %116 = getelementptr inbounds nuw %struct.Agsym_s, ptr %115, i32 0, i32 6
  store i8 1, ptr %116, align 2, !tbaa !62
  br label %117

117:                                              ; preds = %114, %108
  br label %118

118:                                              ; preds = %117, %55
  %119 = load ptr, ptr %5, align 8, !tbaa !35
  %120 = getelementptr inbounds nuw %struct.item_s, ptr %119, i32 0, i32 3
  %121 = load ptr, ptr %120, align 8, !tbaa !39
  store ptr %121, ptr %5, align 8, !tbaa !35
  br label %47, !llvm.loop !63

122:                                              ; preds = %47
  %123 = load ptr, ptr @S, align 8, !tbaa !22
  %124 = getelementptr inbounds nuw %struct.gstack_s, ptr %123, i32 0, i32 4
  call void @deletelist(ptr noundef %124)
  call void @llvm.lifetime.end.p0(i64 8, ptr %7) #14
  call void @llvm.lifetime.end.p0(i64 4, ptr %6) #14
  call void @llvm.lifetime.end.p0(i64 8, ptr %5) #14
  ret void
}