; Function Attrs: nounwind uwtable
define internal fastcc void @attrstmt(i32 noundef %0, ptr noundef readnone captures(address_is_null) %1) unnamed_addr #0 {
  %.not = icmp eq ptr %1, null
  br i1 %.not, label %4, label %3

3:                                                ; preds = %2
  tail call void (ptr, ...) @agwarningf(ptr noundef nonnull @.str.11) #19
  br label %4

4:                                                ; preds = %3, %2
  %5 = load ptr, ptr @S, align 8, !tbaa !8
  %6 = getelementptr inbounds nuw i8, ptr %5, i64 48
  %.01925 = load ptr, ptr %6, align 8, !tbaa !25
  %.not2026 = icmp eq ptr %.01925, null
  br i1 %.not2026, label %._crit_edge, label %.lr.ph

.lr.ph:                                           ; preds = %4, %11
  %.01927 = phi ptr [ %.019, %11 ], [ %.01925, %4 ]
  %7 = getelementptr inbounds nuw i8, ptr %.01927, i64 16
  %8 = load ptr, ptr %7, align 8, !tbaa !29
  %9 = icmp eq ptr %8, null
  br i1 %9, label %10, label %11

10:                                               ; preds = %.lr.ph
  tail call void (ptr, ...) @agwarningf(ptr noundef nonnull @.str.11) #19
  br label %11

11:                                               ; preds = %.lr.ph, %10
  %12 = getelementptr inbounds nuw i8, ptr %.01927, i64 24
  %.019 = load ptr, ptr %12, align 8, !tbaa !25
  %.not20 = icmp eq ptr %.019, null
  br i1 %.not20, label %._crit_edge, label %.lr.ph, !llvm.loop !44

._crit_edge:                                      ; preds = %11, %4
  %switch.tableidx = add i32 %0, -258
  %13 = icmp ult i32 %switch.tableidx, 3
  br i1 %13, label %switch.lookup, label %14

14:                                               ; preds = %._crit_edge
  %15 = load ptr, ptr @stderr, align 8, !tbaa !22
  %16 = tail call i32 (ptr, ptr, ...) @fprintf(ptr noundef %15, ptr noundef nonnull @.str.9, ptr noundef nonnull @.str.10, i32 noundef 352) #22
  tail call void @abort() #25
  unreachable

switch.lookup:                                    ; preds = %._crit_edge
  tail call fastcc void @bindattrs(i32 noundef %switch.tableidx)
  %17 = load ptr, ptr @S, align 8, !tbaa !8
  %18 = getelementptr inbounds nuw i8, ptr %17, i64 48
  %.128 = load ptr, ptr %18, align 8, !tbaa !25
  %.not2129 = icmp eq ptr %.128, null
  br i1 %.not2129, label %._crit_edge33, label %.lr.ph32

.lr.ph32:                                         ; preds = %switch.lookup, %51
  %19 = phi ptr [ %52, %51 ], [ %17, %switch.lookup ]
  %.130 = phi ptr [ %.1, %51 ], [ %.128, %switch.lookup ]
  %20 = load i32, ptr %.130, align 8, !tbaa !26
  %21 = icmp eq i32 %20, 267
  br i1 %21, label %51, label %22

22:                                               ; preds = %.lr.ph32
  %23 = getelementptr inbounds nuw i8, ptr %.130, i64 8
  %24 = load ptr, ptr %23, align 8, !tbaa !7
  %25 = getelementptr inbounds nuw i8, ptr %24, i64 37
  %26 = load i8, ptr %25, align 1, !tbaa !45
  %.not22 = icmp eq i8 %26, 0
  br i1 %.not22, label %30, label %27

27:                                               ; preds = %22
  %28 = load ptr, ptr %19, align 8, !tbaa !24
  %29 = load ptr, ptr @G, align 8, !tbaa !19
  %.not23 = icmp eq ptr %28, %29
  br i1 %.not23, label %44, label %30

30:                                               ; preds = %27, %22
  %31 = getelementptr inbounds nuw i8, ptr %.130, i64 16
  %32 = load ptr, ptr %31, align 8, !tbaa !29
  %33 = tail call i32 @aghtmlstr(ptr noundef %32) #19
  %.not24 = icmp eq i32 %33, 0
  %34 = load ptr, ptr @S, align 8, !tbaa !8
  %35 = load ptr, ptr %34, align 8, !tbaa !24
  %36 = load ptr, ptr %23, align 8, !tbaa !7
  %37 = getelementptr inbounds nuw i8, ptr %36, i64 16
  %38 = load ptr, ptr %37, align 8, !tbaa !49
  %39 = load ptr, ptr %31, align 8, !tbaa !29
  br i1 %.not24, label %42, label %40

40:                                               ; preds = %30
  %41 = tail call ptr @agattr_html(ptr noundef %35, i32 noundef %switch.tableidx, ptr noundef %38, ptr noundef %39) #19
  br label %44

42:                                               ; preds = %30
  %43 = tail call ptr @agattr(ptr noundef %35, i32 noundef %switch.tableidx, ptr noundef %38, ptr noundef %39) #19
  br label %44

44:                                               ; preds = %27, %40, %42
  %.0 = phi ptr [ %41, %40 ], [ %43, %42 ], [ %24, %27 ]
  %45 = load ptr, ptr @S, align 8, !tbaa !8
  %46 = load ptr, ptr %45, align 8, !tbaa !24
  %47 = load ptr, ptr @G, align 8, !tbaa !19
  %48 = icmp eq ptr %46, %47
  br i1 %48, label %49, label %51

49:                                               ; preds = %44
  %50 = getelementptr inbounds nuw i8, ptr %.0, i64 38
  store i8 1, ptr %50, align 2, !tbaa !50
  br label %51

51:                                               ; preds = %44, %49, %.lr.ph32
  %52 = phi ptr [ %45, %44 ], [ %45, %49 ], [ %19, %.lr.ph32 ]
  %53 = getelementptr inbounds nuw i8, ptr %.130, i64 24
  %.1 = load ptr, ptr %53, align 8, !tbaa !25
  %.not21 = icmp eq ptr %.1, null
  br i1 %.not21, label %._crit_edge33.loopexit, label %.lr.ph32, !llvm.loop !51

._crit_edge33.loopexit:                           ; preds = %51
  %.phi.trans.insert = getelementptr inbounds nuw i8, ptr %52, i64 48
  %.pre = load ptr, ptr %.phi.trans.insert, align 8, !tbaa !11
  br label %._crit_edge33

._crit_edge33:                                    ; preds = %._crit_edge33.loopexit, %switch.lookup
  %54 = phi ptr [ %.pre, %._crit_edge33.loopexit ], [ null, %switch.lookup ]
  %55 = phi ptr [ %52, %._crit_edge33.loopexit ], [ %17, %switch.lookup ]
  %56 = getelementptr inbounds nuw i8, ptr %55, i64 48
  tail call fastcc void @delete_items(ptr noundef %54)
  tail call void @llvm.memset.p0.i64(ptr noundef nonnull align 8 dereferenceable(16) %56, i8 0, i64 16, i1 false)
  ret void
}